; Function Attrs: mustprogress uwtable
define noundef zeroext i1 @_ZN3url23CanonicalizeStandardURLEPKciRKNS_6ParsedEPNS_16CharsetConverterEPNS_12CanonOutputTIcEEPS2_(ptr noundef %0, i32 noundef %1, ptr noundef nonnull align 8 dereferenceable(72) %2, ptr noundef %3, ptr noundef %4, ptr noundef %5) local_unnamed_addr #3 {
  %7 = alloca %"struct.url::URLComponentSource", align 8
  call void @llvm.lifetime.start.p0(i64 64, ptr nonnull %7) #13
  store ptr %0, ptr %7, align 8, !tbaa !3
  %8 = getelementptr inbounds nuw i8, ptr %7, i64 8
  store ptr %0, ptr %8, align 8, !tbaa !9
  %9 = getelementptr inbounds nuw i8, ptr %7, i64 16
  store ptr %0, ptr %9, align 8, !tbaa !10
  %10 = getelementptr inbounds nuw i8, ptr %7, i64 24
  store ptr %0, ptr %10, align 8, !tbaa !11
  %11 = getelementptr inbounds nuw i8, ptr %7, i64 32
  store ptr %0, ptr %11, align 8, !tbaa !12
  %12 = getelementptr inbounds nuw i8, ptr %7, i64 40
  store ptr %0, ptr %12, align 8, !tbaa !13
  %13 = getelementptr inbounds nuw i8, ptr %7, i64 48
  store ptr %0, ptr %13, align 8, !tbaa !14
  %14 = getelementptr inbounds nuw i8, ptr %7, i64 56
  store ptr %0, ptr %14, align 8, !tbaa !15
  %15 = call fastcc noundef zeroext i1 @_ZN3url12_GLOBAL__N_125DoCanonicalizeStandardURLIchEEbRKNS_18URLComponentSourceIT_EERKNS_6ParsedEPNS_16CharsetConverterEPNS_12CanonOutputTIcEEPS7_(ptr noundef nonnull align 8 dereferenceable(64) %7, ptr noundef nonnull align 8 dereferenceable(72) %2, ptr noundef %3, ptr noundef %4, ptr noundef %5)
  call void @llvm.lifetime.end.p0(i64 64, ptr nonnull %7) #13
  ret i1 %15
}